target datalayout = "e-m:e-p270:32:32-p271:32:32-p272:64:64-i64:64-i128:128-f80:128-n8:16:32:64-S128"
target triple = "x86_64-pc-linux-gnu"

; Function Attrs: nounwind uwtable
define i32 @Java_sun_nio_fs_UnixNativeDispatcher_access0(ptr noundef %0, ptr noundef %1, i64 noundef %2, i32 noundef %3) #0 {
  %5 = alloca ptr, align 8
  %6 = alloca ptr, align 8
  %7 = alloca i64, align 8
  %8 = alloca i32, align 4
  %9 = alloca i32, align 4
  %10 = alloca ptr, align 8
  store ptr %0, ptr %5, align 8
  store ptr %1, ptr %6, align 8
  store i64 %2, ptr %7, align 8
  store i32 %3, ptr %8, align 4
  %11 = load i64, ptr %7, align 8
  %12 = inttoptr i64 %11 to ptr
  store ptr %12, ptr %10, align 8
  br label %13

13:                                               ; preds = %4
  br label %14

14:                                               ; preds = %25, %13
  %15 = load ptr, ptr %10, align 8
  %16 = load i32, ptr %8, align 4
  %17 = call i32 @access(ptr noundef %15, i32 noundef %16) #6
  store i32 %17, ptr %9, align 4
  br label %18

18:                                               ; preds = %14
  %19 = load i32, ptr %9, align 4
  %20 = icmp eq i32 %19, -1
  br i1 %20, label %21, label %25

21:                                               ; preds = %18
  %22 = call ptr @__errno_location() #7
  %23 = load i32, ptr %22, align 4
  %24 = icmp eq i32 %23, 4
  br label %25

25:                                               ; preds = %21, %18
  %26 = phi i1 [ false, %18 ], [ %24, %21 ]
  br i1 %26, label %14, label %27, !llvm.loop !30

27:                                               ; preds = %25
  br label %28

28:                                               ; preds = %27
  %29 = load i32, ptr %9, align 4
  %30 = icmp eq i32 %29, -1
  br i1 %30, label %31, label %34

31:                                               ; preds = %28
  %32 = call ptr @__errno_location() #7
  %33 = load i32, ptr %32, align 4
  br label %35

34:                                               ; preds = %28
  br label %35

35:                                               ; preds = %34, %31
  %36 = phi i32 [ %33, %31 ], [ 0, %34 ]
  ret i32 %36
}