; Function Attrs: nofree nounwind uwtable
define i32 @Java_sun_nio_fs_UnixNativeDispatcher_access0(ptr nocapture noundef readnone %0, ptr nocapture noundef readnone %1, i64 noundef %2, i32 noundef %3) local_unnamed_addr #9 {
  %5 = inttoptr i64 %2 to ptr
  br label %6

6:                                                ; preds = %9, %4
  %7 = tail call i32 @access(ptr noundef %5, i32 noundef %3) #11
  %8 = icmp eq i32 %7, -1
  br i1 %8, label %9, label %.critedge4

9:                                                ; preds = %6
  %10 = tail call ptr @__errno_location() #12
  %11 = load i32, ptr %10, align 4
  %12 = icmp eq i32 %11, 4
  br i1 %12, label %6, label %.critedge4, !llvm.loop !46

.critedge4:                                       ; preds = %9, %6
  %13 = phi i32 [ 0, %6 ], [ %11, %9 ]
  ret i32 %13
}